; Function Attrs: nounwind sspstrong uwtable
define internal fastcc void @append_major_operation(ptr noundef captures(none) %options, i32 noundef range(i32 35, 41) %type) unnamed_addr #1 {
entry:
  %op = alloca %struct.Operation, align 8
  call void @llvm.memset.p0.i64(ptr noundef nonnull align 8 dereferenceable(48) %op, i8 0, i64 48, i1 false)
  store i32 %type, ptr %op, align 8
  tail call fastcc void @append_new_operation(ptr noundef %options, ptr noundef nonnull byval(%struct.Operation) align 8 %op)
  %num_major_ops = getelementptr inbounds nuw i8, ptr %options, i64 60
  %0 = load i32, ptr %num_major_ops, align 4
  %inc = add i32 %0, 1
  store i32 %inc, ptr %num_major_ops, align 4
  ret void
}